target datalayout = "e-m:e-p270:32:32-p271:32:32-p272:64:64-i64:64-i128:128-f80:128-n8:16:32:64-S128"
target triple = "x86_64-pc-linux-gnu"

%struct.Vec_Ptr_t_ = type { i32, i32, ptr }
%struct.Aig_Obj_t_ = type { %union.anon, ptr, ptr, i64, i32, i32, %union.anon.0 }
%union.anon = type { ptr }
%union.anon.0 = type { ptr }
%struct.Aig_Man_t_ = type { ptr, ptr, ptr, ptr, ptr, ptr, ptr, %struct.Aig_Obj_t_, i32, i32, i32, i32, i32, i32, [7 x i32], i32, ptr, i32, ptr, i32, ptr, i32, i32, i32, ptr, i32, i32, i32, i32, i32, ptr, ptr, i32, ptr, ptr, i32, ptr, ptr, i32, i32, i32, ptr, ptr, ptr, ptr, ptr, ptr, ptr, ptr, ptr, ptr, ptr, ptr, ptr, ptr, i32, ptr, ptr, ptr, ptr, i32, i64, i64, i64, ptr, ptr }

; Function Attrs: inlinehint nounwind uwtable
define internal ptr @Aig_ManConst1(ptr noundef %0) #2 {
  %2 = alloca ptr, align 8
  store ptr %0, ptr %2, align 8, !tbaa !3
  %3 = load ptr, ptr %2, align 8, !tbaa !3
  %4 = getelementptr inbounds nuw %struct.Aig_Man_t_, ptr %3, i32 0, i32 6
  %5 = load ptr, ptr %4, align 8, !tbaa !89
  ret ptr %5
}

; Function Attrs: inlinehint nounwind uwtable
define internal ptr @Vec_PtrEntry(ptr noundef %0, i32 noundef %1) #2 {
  %3 = alloca ptr, align 8
  %4 = alloca i32, align 4
  store ptr %0, ptr %3, align 8, !tbaa !8
  store i32 %1, ptr %4, align 4, !tbaa !10
  %5 = load ptr, ptr %3, align 8, !tbaa !8
  %6 = getelementptr inbounds nuw %struct.Vec_Ptr_t_, ptr %5, i32 0, i32 2
  %7 = load ptr, ptr %6, align 8, !tbaa !17
  %8 = load i32, ptr %4, align 4, !tbaa !10
  %9 = sext i32 %8 to i64
  %10 = getelementptr inbounds ptr, ptr %7, i64 %9
  %11 = load ptr, ptr %10, align 8, !tbaa !18
  ret ptr %11
}

; Function Attrs: inlinehint nounwind uwtable
define internal i32 @Vec_PtrSize(ptr noundef %0) #2 {
  %2 = alloca ptr, align 8
  store ptr %0, ptr %2, align 8, !tbaa !8
  %3 = load ptr, ptr %2, align 8, !tbaa !8
  %4 = getelementptr inbounds nuw %struct.Vec_Ptr_t_, ptr %3, i32 0, i32 1
  %5 = load i32, ptr %4, align 4, !tbaa !14
  ret i32 %5
}

; Function Attrs: nounwind uwtable
define void @Llb_ManFlowPrepareCut(ptr noundef %0, ptr noundef %1, ptr noundef %2) #0 {
  %4 = alloca ptr, align 8
  %5 = alloca ptr, align 8
  %6 = alloca ptr, align 8
  %7 = alloca ptr, align 8
  %8 = alloca i32, align 4
  store ptr %0, ptr %4, align 8, !tbaa !3
  store ptr %1, ptr %5, align 8, !tbaa !8
  store ptr %2, ptr %6, align 8, !tbaa !8
  call void @llvm.lifetime.start.p0(i64 8, ptr %7) #10
  call void @llvm.lifetime.start.p0(i64 4, ptr %8) #10
  store i32 0, ptr %8, align 4, !tbaa !10
  br label %9

9:                                                ; preds = %40, %3
  %10 = load i32, ptr %8, align 4, !tbaa !10
  %11 = load ptr, ptr %4, align 8, !tbaa !3
  %12 = getelementptr inbounds nuw %struct.Aig_Man_t_, ptr %11, i32 0, i32 4
  %13 = load ptr, ptr %12, align 8, !tbaa !46
  %14 = call i32 @Vec_PtrSize(ptr noundef %13)
  %15 = icmp slt i32 %10, %14
  br i1 %15, label %16, label %22

16:                                               ; preds = %9
  %17 = load ptr, ptr %4, align 8, !tbaa !3
  %18 = getelementptr inbounds nuw %struct.Aig_Man_t_, ptr %17, i32 0, i32 4
  %19 = load ptr, ptr %18, align 8, !tbaa !46
  %20 = load i32, ptr %8, align 4, !tbaa !10
  %21 = call ptr @Vec_PtrEntry(ptr noundef %19, i32 noundef %20)
  store ptr %21, ptr %7, align 8, !tbaa !19
  br label %22

22:                                               ; preds = %16, %9
  %23 = phi i1 [ false, %9 ], [ true, %16 ]
  br i1 %23, label %24, label %43

24:                                               ; preds = %22
  %25 = load ptr, ptr %7, align 8, !tbaa !19
  %26 = icmp eq ptr %25, null
  br i1 %26, label %27, label %28

27:                                               ; preds = %24
  br label %39

28:                                               ; preds = %24
  %29 = load ptr, ptr %7, align 8, !tbaa !19
  %30 = getelementptr inbounds nuw %struct.Aig_Obj_t_, ptr %29, i32 0, i32 3
  %31 = load i64, ptr %30, align 8
  %32 = and i64 %31, -17
  %33 = or i64 %32, 0
  store i64 %33, ptr %30, align 8
  %34 = load ptr, ptr %7, align 8, !tbaa !19
  %35 = getelementptr inbounds nuw %struct.Aig_Obj_t_, ptr %34, i32 0, i32 3
  %36 = load i64, ptr %35, align 8
  %37 = and i64 %36, -33
  %38 = or i64 %37, 32
  store i64 %38, ptr %35, align 8
  br label %39

39:                                               ; preds = %28, %27
  br label %40

40:                                               ; preds = %39
  %41 = load i32, ptr %8, align 4, !tbaa !10
  %42 = add nsw i32 %41, 1
  store i32 %42, ptr %8, align 4, !tbaa !10
  br label %9, !llvm.loop !85

43:                                               ; preds = %22
  %44 = load ptr, ptr %4, align 8, !tbaa !3
  %45 = call ptr @Aig_ManConst1(ptr noundef %44)
  %46 = getelementptr inbounds nuw %struct.Aig_Obj_t_, ptr %45, i32 0, i32 3
  %47 = load i64, ptr %46, align 8
  %48 = and i64 %47, -33
  %49 = or i64 %48, 0
  store i64 %49, ptr %46, align 8
  store i32 0, ptr %8, align 4, !tbaa !10
  br label %50

50:                                               ; preds = %71, %43
  %51 = load i32, ptr %8, align 4, !tbaa !10
  %52 = load ptr, ptr %4, align 8, !tbaa !3
  %53 = getelementptr inbounds nuw %struct.Aig_Man_t_, ptr %52, i32 0, i32 2
  %54 = load ptr, ptr %53, align 8, !tbaa !31
  %55 = call i32 @Vec_PtrSize(ptr noundef %54)
  %56 = icmp slt i32 %51, %55
  br i1 %56, label %57, label %63

57:                                               ; preds = %50
  %58 = load ptr, ptr %4, align 8, !tbaa !3
  %59 = getelementptr inbounds nuw %struct.Aig_Man_t_, ptr %58, i32 0, i32 2
  %60 = load ptr, ptr %59, align 8, !tbaa !31
  %61 = load i32, ptr %8, align 4, !tbaa !10
  %62 = call ptr @Vec_PtrEntry(ptr noundef %60, i32 noundef %61)
  store ptr %62, ptr %7, align 8, !tbaa !19
  br label %63

63:                                               ; preds = %57, %50
  %64 = phi i1 [ false, %50 ], [ true, %57 ]
  br i1 %64, label %65, label %74

65:                                               ; preds = %63
  %66 = load ptr, ptr %7, align 8, !tbaa !19
  %67 = getelementptr inbounds nuw %struct.Aig_Obj_t_, ptr %66, i32 0, i32 3
  %68 = load i64, ptr %67, align 8
  %69 = and i64 %68, -33
  %70 = or i64 %69, 0
  store i64 %70, ptr %67, align 8
  br label %71

71:                                               ; preds = %65
  %72 = load i32, ptr %8, align 4, !tbaa !10
  %73 = add nsw i32 %72, 1
  store i32 %73, ptr %8, align 4, !tbaa !10
  br label %50, !llvm.loop !86

74:                                               ; preds = %63
  store i32 0, ptr %8, align 4, !tbaa !10
  br label %75

75:                                               ; preds = %88, %74
  %76 = load i32, ptr %8, align 4, !tbaa !10
  %77 = load ptr, ptr %6, align 8, !tbaa !8
  %78 = call i32 @Vec_PtrSize(ptr noundef %77)
  %79 = icmp slt i32 %76, %78
  br i1 %79, label %80, label %84

80:                                               ; preds = %75
  %81 = load ptr, ptr %6, align 8, !tbaa !8
  %82 = load i32, ptr %8, align 4, !tbaa !10
  %83 = call ptr @Vec_PtrEntry(ptr noundef %81, i32 noundef %82)
  store ptr %83, ptr %7, align 8, !tbaa !19
  br label %84

84:                                               ; preds = %80, %75
  %85 = phi i1 [ false, %75 ], [ true, %80 ]
  br i1 %85, label %86, label %91

86:                                               ; preds = %84
  %87 = load ptr, ptr %7, align 8, !tbaa !19
  call void @Llb_ManFlowCleanMarkB_rec(ptr noundef %87)
  br label %88

88:                                               ; preds = %86
  %89 = load i32, ptr %8, align 4, !tbaa !10
  %90 = add nsw i32 %89, 1
  store i32 %90, ptr %8, align 4, !tbaa !10
  br label %75, !llvm.loop !87

91:                                               ; preds = %84
  store i32 0, ptr %8, align 4, !tbaa !10
  br label %92

92:                                               ; preds = %105, %91
  %93 = load i32, ptr %8, align 4, !tbaa !10
  %94 = load ptr, ptr %5, align 8, !tbaa !8
  %95 = call i32 @Vec_PtrSize(ptr noundef %94)
  %96 = icmp slt i32 %93, %95
  br i1 %96, label %97, label %101

97:                                               ; preds = %92
  %98 = load ptr, ptr %5, align 8, !tbaa !8
  %99 = load i32, ptr %8, align 4, !tbaa !10
  %100 = call ptr @Vec_PtrEntry(ptr noundef %98, i32 noundef %99)
  store ptr %100, ptr %7, align 8, !tbaa !19
  br label %101

101:                                              ; preds = %97, %92
  %102 = phi i1 [ false, %92 ], [ true, %97 ]
  br i1 %102, label %103, label %108

103:                                              ; preds = %101
  %104 = load ptr, ptr %7, align 8, !tbaa !19
  call void @Llb_ManFlowSetMarkA_rec(ptr noundef %104)
  br label %105

105:                                              ; preds = %103
  %106 = load i32, ptr %8, align 4, !tbaa !10
  %107 = add nsw i32 %106, 1
  store i32 %107, ptr %8, align 4, !tbaa !10
  br label %92, !llvm.loop !88

108:                                              ; preds = %101
  call void @llvm.lifetime.end.p0(i64 4, ptr %8) #10
  call void @llvm.lifetime.end.p0(i64 8, ptr %7) #10
  ret void
}