; Function Attrs: nofree nosync nounwind memory(readwrite, inaccessiblemem: none) uwtable
define void @Llb_ManFlowPrepareCut(ptr noundef readonly captures(none) %0, ptr noundef readonly captures(none) %1, ptr noundef readonly captures(none) %2) local_unnamed_addr #6 {
  %4 = getelementptr inbounds nuw i8, ptr %0, i64 32
  %5 = load ptr, ptr %4, align 8, !tbaa !35
  %6 = getelementptr i8, ptr %5, i64 4
  %.val3941 = load i32, ptr %6, align 4, !tbaa !10
  %7 = icmp sgt i32 %.val3941, 0
  br i1 %7, label %.lr.ph, label %.critedge

.lr.ph:                                           ; preds = %3, %18
  %8 = phi ptr [ %19, %18 ], [ %5, %3 ]
  %indvars.iv = phi i64 [ %indvars.iv.next, %18 ], [ 0, %3 ]
  %9 = getelementptr i8, ptr %8, i64 8
  %.val35 = load ptr, ptr %9, align 8, !tbaa !9
  %10 = getelementptr inbounds nuw ptr, ptr %.val35, i64 %indvars.iv
  %11 = load ptr, ptr %10, align 8, !tbaa !11
  %12 = icmp eq ptr %11, null
  br i1 %12, label %18, label %13

13:                                               ; preds = %.lr.ph
  %14 = getelementptr inbounds nuw i8, ptr %11, i64 24
  %15 = load i64, ptr %14, align 8
  %16 = and i64 %15, -49
  %17 = or disjoint i64 %16, 32
  store i64 %17, ptr %14, align 8
  %.pre = load ptr, ptr %4, align 8, !tbaa !35
  br label %18

18:                                               ; preds = %13, %.lr.ph
  %19 = phi ptr [ %.pre, %13 ], [ %8, %.lr.ph ]
  %indvars.iv.next = add nuw nsw i64 %indvars.iv, 1
  %20 = getelementptr i8, ptr %19, i64 4
  %.val39 = load i32, ptr %20, align 4, !tbaa !10
  %21 = sext i32 %.val39 to i64
  %22 = icmp slt i64 %indvars.iv.next, %21
  br i1 %22, label %.lr.ph, label %.critedge, !llvm.loop !81

.critedge:                                        ; preds = %18, %3
  %23 = getelementptr i8, ptr %0, i64 48
  %.val40 = load ptr, ptr %23, align 8, !tbaa !82
  %24 = getelementptr inbounds nuw i8, ptr %.val40, i64 24
  %25 = load i64, ptr %24, align 8
  %26 = and i64 %25, -33
  store i64 %26, ptr %24, align 8
  %27 = getelementptr inbounds nuw i8, ptr %0, i64 16
  %28 = load ptr, ptr %27, align 8, !tbaa !51
  %29 = getelementptr i8, ptr %28, i64 4
  %.val3843 = load i32, ptr %29, align 4, !tbaa !10
  %30 = icmp sgt i32 %.val3843, 0
  br i1 %30, label %.lr.ph45, label %.critedge2.preheader

.critedge2.preheader:                             ; preds = %.lr.ph45, %.critedge
  %31 = getelementptr i8, ptr %2, i64 4
  %.val3746 = load i32, ptr %31, align 4, !tbaa !10
  %32 = icmp sgt i32 %.val3746, 0
  br i1 %32, label %.lr.ph48, label %.critedge4.preheader

.lr.ph48:                                         ; preds = %.critedge2.preheader
  %33 = getelementptr i8, ptr %2, i64 8
  br label %.critedge2

.lr.ph45:                                         ; preds = %.critedge, %.lr.ph45
  %indvars.iv53 = phi i64 [ %indvars.iv.next54, %.lr.ph45 ], [ 0, %.critedge ]
  %34 = phi ptr [ %41, %.lr.ph45 ], [ %28, %.critedge ]
  %35 = getelementptr i8, ptr %34, i64 8
  %.val34 = load ptr, ptr %35, align 8, !tbaa !9
  %36 = getelementptr inbounds nuw ptr, ptr %.val34, i64 %indvars.iv53
  %37 = load ptr, ptr %36, align 8, !tbaa !11
  %38 = getelementptr inbounds nuw i8, ptr %37, i64 24
  %39 = load i64, ptr %38, align 8
  %40 = and i64 %39, -33
  store i64 %40, ptr %38, align 8
  %indvars.iv.next54 = add nuw nsw i64 %indvars.iv53, 1
  %41 = load ptr, ptr %27, align 8, !tbaa !51
  %42 = getelementptr i8, ptr %41, i64 4
  %.val38 = load i32, ptr %42, align 4, !tbaa !10
  %43 = sext i32 %.val38 to i64
  %44 = icmp slt i64 %indvars.iv.next54, %43
  br i1 %44, label %.lr.ph45, label %.critedge2.preheader, !llvm.loop !83

.critedge4.preheader:                             ; preds = %.critedge2, %.critedge2.preheader
  %45 = getelementptr i8, ptr %1, i64 4
  %.val3649 = load i32, ptr %45, align 4, !tbaa !10
  %46 = icmp sgt i32 %.val3649, 0
  br i1 %46, label %.lr.ph51, label %.critedge6

.lr.ph51:                                         ; preds = %.critedge4.preheader
  %47 = getelementptr i8, ptr %1, i64 8
  br label %.critedge4

.critedge2:                                       ; preds = %.lr.ph48, %.critedge2
  %indvars.iv56 = phi i64 [ 0, %.lr.ph48 ], [ %indvars.iv.next57, %.critedge2 ]
  %.val33 = load ptr, ptr %33, align 8, !tbaa !9
  %48 = getelementptr inbounds nuw ptr, ptr %.val33, i64 %indvars.iv56
  %49 = load ptr, ptr %48, align 8, !tbaa !11
  tail call void @Llb_ManFlowCleanMarkB_rec(ptr noundef %49)
  %indvars.iv.next57 = add nuw nsw i64 %indvars.iv56, 1
  %.val37 = load i32, ptr %31, align 4, !tbaa !10
  %50 = sext i32 %.val37 to i64
  %51 = icmp slt i64 %indvars.iv.next57, %50
  br i1 %51, label %.critedge2, label %.critedge4.preheader, !llvm.loop !84

.critedge4:                                       ; preds = %.lr.ph51, %.critedge4
  %indvars.iv59 = phi i64 [ 0, %.lr.ph51 ], [ %indvars.iv.next60, %.critedge4 ]
  %.val = load ptr, ptr %47, align 8, !tbaa !9
  %52 = getelementptr inbounds nuw ptr, ptr %.val, i64 %indvars.iv59
  %53 = load ptr, ptr %52, align 8, !tbaa !11
  tail call void @Llb_ManFlowSetMarkA_rec(ptr noundef %53)
  %indvars.iv.next60 = add nuw nsw i64 %indvars.iv59, 1
  %.val36 = load i32, ptr %45, align 4, !tbaa !10
  %54 = sext i32 %.val36 to i64
  %55 = icmp slt i64 %indvars.iv.next60, %54
  br i1 %55, label %.critedge4, label %.critedge6, !llvm.loop !85

.critedge6:                                       ; preds = %.critedge4, %.critedge4.preheader
  ret void
}